; Function Attrs: nounwind uwtable
define hidden void @recff_ffi_istype(ptr noundef %0, ptr noundef readonly captures(none) %1) local_unnamed_addr #0 {
  %3 = getelementptr inbounds nuw i8, ptr %0, i64 160
  %4 = load ptr, ptr %3, align 8, !tbaa !4
  %5 = load i32, ptr %4, align 4, !tbaa !27
  %6 = load ptr, ptr %1, align 8, !tbaa !28
  %7 = tail call fastcc i32 @argv2ctype(ptr noundef %0, i32 noundef %5, ptr noundef %6)
  %8 = load ptr, ptr %3, align 8, !tbaa !4
  %9 = getelementptr inbounds nuw i8, ptr %8, i64 4
  %10 = load i32, ptr %9, align 4, !tbaa !27
  %11 = and i32 %10, 520093696
  %12 = icmp eq i32 %11, 167772160
  br i1 %12, label %13, label %19

13:                                               ; preds = %2
  %14 = load ptr, ptr %1, align 8, !tbaa !28
  %15 = getelementptr inbounds nuw i8, ptr %14, i64 8
  %16 = tail call fastcc i32 @argv2ctype(ptr noundef nonnull %0, i32 noundef %10, ptr noundef nonnull %15)
  %17 = getelementptr inbounds nuw i8, ptr %0, i64 372
  store i32 4, ptr %17, align 4, !tbaa !64
  %18 = load ptr, ptr %3, align 8, !tbaa !4
  store i32 33587197, ptr %18, align 4, !tbaa !27
  br label %20

19:                                               ; preds = %2
  store i32 16809982, ptr %8, align 4, !tbaa !27
  br label %20

20:                                               ; preds = %19, %13
  ret void
}